target datalayout = "e-m:e-p270:32:32-p271:32:32-p272:64:64-i64:64-i128:128-f80:128-n8:16:32:64-S128"
target triple = "x86_64-pc-linux-gnu"

%class.anon.59 = type { ptr }

; Function Attrs: inlinehint mustprogress uwtable
define internal void @"_ZZN3sat12local_search6importERKNS_6solverEbENK3$_1clEjPKNS_7literalEPKjj"(ptr noundef nonnull align 8 dereferenceable(8) %0, i32 noundef %1, ptr noundef %2, ptr noundef %3, i32 noundef %4) #8 align 2 {
  %6 = alloca ptr, align 8
  %7 = alloca i32, align 4
  %8 = alloca ptr, align 8
  %9 = alloca ptr, align 8
  %10 = alloca i32, align 4
  store ptr %0, ptr %6, align 8, !tbaa !212
  store i32 %1, ptr %7, align 4, !tbaa !10
  store ptr %2, ptr %8, align 8, !tbaa !72
  store ptr %3, ptr %9, align 8, !tbaa !88
  store i32 %4, ptr %10, align 4, !tbaa !10
  %11 = load ptr, ptr %6, align 8
  %12 = getelementptr inbounds nuw %class.anon.59, ptr %11, i32 0, i32 0
  %13 = load ptr, ptr %12, align 8, !tbaa !168
  %14 = load i32, ptr %7, align 4, !tbaa !10
  %15 = load ptr, ptr %8, align 8, !tbaa !72
  %16 = load ptr, ptr %9, align 8, !tbaa !88
  %17 = load i32, ptr %10, align 4, !tbaa !10
  call void @_ZN3sat12local_search6add_pbEjPKNS_7literalEPKjj(ptr noundef nonnull align 8 dereferenceable(232) %13, i32 noundef %14, ptr noundef %15, ptr noundef %16, i32 noundef %17)
  ret void
}

; Function Attrs: mustprogress nounwind uwtable
define linkonce_odr hidden noundef ptr @_ZNKSt9_Any_data9_M_accessEv(ptr noundef nonnull align 8 dereferenceable(16) %0) #6 comdat align 2 {
  %2 = alloca ptr, align 8
  store ptr %0, ptr %2, align 8, !tbaa !490
  %3 = load ptr, ptr %2, align 8
  %4 = getelementptr inbounds [16 x i8], ptr %3, i64 0, i64 0
  ret ptr %4
}

; Function Attrs: mustprogress uwtable
define internal void @"_ZSt13__invoke_implIvRZN3sat12local_search6importERKNS0_6solverEbE3$_1JjPKNS0_7literalEPKjjEET_St14__invoke_otherOT0_DpOT1_"(ptr noundef nonnull align 8 dereferenceable(8) %0, ptr noundef nonnull align 4 dereferenceable(4) %1, ptr noundef nonnull align 8 dereferenceable(8) %2, ptr noundef nonnull align 8 dereferenceable(8) %3, ptr noundef nonnull align 4 dereferenceable(4) %4) #4 {
  %6 = alloca ptr, align 8
  %7 = alloca ptr, align 8
  %8 = alloca ptr, align 8
  %9 = alloca ptr, align 8
  %10 = alloca ptr, align 8
  store ptr %0, ptr %6, align 8, !tbaa !212
  store ptr %1, ptr %7, align 8, !tbaa !88
  store ptr %2, ptr %8, align 8, !tbaa !468
  store ptr %3, ptr %9, align 8, !tbaa !464
  store ptr %4, ptr %10, align 8, !tbaa !88
  %11 = load ptr, ptr %6, align 8, !tbaa !212
  %12 = load ptr, ptr %7, align 8, !tbaa !88
  %13 = load i32, ptr %12, align 4, !tbaa !10
  %14 = load ptr, ptr %8, align 8, !tbaa !468
  %15 = load ptr, ptr %14, align 8, !tbaa !72
  %16 = load ptr, ptr %9, align 8, !tbaa !464
  %17 = load ptr, ptr %16, align 8, !tbaa !88
  %18 = load ptr, ptr %10, align 8, !tbaa !88
  %19 = load i32, ptr %18, align 4, !tbaa !10
  call void @"_ZZN3sat12local_search6importERKNS_6solverEbENK3$_1clEjPKNS_7literalEPKjj"(ptr noundef nonnull align 8 dereferenceable(8) %11, i32 noundef %13, ptr noundef %15, ptr noundef %17, i32 noundef %19)
  ret void
}

; Function Attrs: mustprogress nounwind uwtable
define internal noundef nonnull align 8 dereferenceable(8) ptr @"_ZNKSt9_Any_data9_M_accessIZN3sat12local_search6importERKNS1_6solverEbE3$_1EERKT_v"(ptr noundef nonnull align 8 dereferenceable(16) %0) #6 align 2 {
  %2 = alloca ptr, align 8
  store ptr %0, ptr %2, align 8, !tbaa !490
  %3 = load ptr, ptr %2, align 8
  %4 = call noundef ptr @_ZNKSt9_Any_data9_M_accessEv(ptr noundef nonnull align 8 dereferenceable(16) %3) #3
  ret ptr %4
}

; Function Attrs: mustprogress uwtable
define internal void @"_ZSt10__invoke_rIvRZN3sat12local_search6importERKNS0_6solverEbE3$_1JjPKNS0_7literalEPKjjEENSt9enable_ifIX16is_invocable_r_vIT_T0_DpT1_EESD_E4typeEOSE_DpOSF_"(ptr noundef nonnull align 8 dereferenceable(8) %0, ptr noundef nonnull align 4 dereferenceable(4) %1, ptr noundef nonnull align 8 dereferenceable(8) %2, ptr noundef nonnull align 8 dereferenceable(8) %3, ptr noundef nonnull align 4 dereferenceable(4) %4) #4 {
  %6 = alloca ptr, align 8
  %7 = alloca ptr, align 8
  %8 = alloca ptr, align 8
  %9 = alloca ptr, align 8
  %10 = alloca ptr, align 8
  store ptr %0, ptr %6, align 8, !tbaa !212
  store ptr %1, ptr %7, align 8, !tbaa !88
  store ptr %2, ptr %8, align 8, !tbaa !468
  store ptr %3, ptr %9, align 8, !tbaa !464
  store ptr %4, ptr %10, align 8, !tbaa !88
  %11 = load ptr, ptr %6, align 8, !tbaa !212
  %12 = load ptr, ptr %7, align 8, !tbaa !88
  %13 = load ptr, ptr %8, align 8, !tbaa !468
  %14 = load ptr, ptr %9, align 8, !tbaa !464
  %15 = load ptr, ptr %10, align 8, !tbaa !88
  call void @"_ZSt13__invoke_implIvRZN3sat12local_search6importERKNS0_6solverEbE3$_1JjPKNS0_7literalEPKjjEET_St14__invoke_otherOT0_DpOT1_"(ptr noundef nonnull align 8 dereferenceable(8) %11, ptr noundef nonnull align 4 dereferenceable(4) %12, ptr noundef nonnull align 8 dereferenceable(8) %13, ptr noundef nonnull align 8 dereferenceable(8) %14, ptr noundef nonnull align 4 dereferenceable(4) %15)
  ret void
}

; Function Attrs: mustprogress nounwind uwtable
define internal noundef ptr @"_ZNSt14_Function_base13_Base_managerIZN3sat12local_search6importERKNS1_6solverEbE3$_1E14_M_get_pointerERKSt9_Any_data"(ptr noundef nonnull align 8 dereferenceable(16) %0) #6 align 2 {
  %2 = alloca ptr, align 8
  %3 = alloca ptr, align 8
  store ptr %0, ptr %2, align 8, !tbaa !490
  call void @llvm.lifetime.start.p0(i64 8, ptr %3) #3
  %4 = load ptr, ptr %2, align 8, !tbaa !490
  %5 = call noundef nonnull align 8 dereferenceable(8) ptr @"_ZNKSt9_Any_data9_M_accessIZN3sat12local_search6importERKNS1_6solverEbE3$_1EERKT_v"(ptr noundef nonnull align 8 dereferenceable(16) %4) #3
  store ptr %5, ptr %3, align 8, !tbaa !212
  %6 = load ptr, ptr %3, align 8, !tbaa !212
  call void @llvm.lifetime.end.p0(i64 8, ptr %3) #3
  ret ptr %6
}

; Function Attrs: mustprogress uwtable
define internal void @"_ZNSt17_Function_handlerIFvjPKN3sat7literalEPKjjEZNS0_12local_search6importERKNS0_6solverEbE3$_1E9_M_invokeERKSt9_Any_dataOjOS3_OS5_SG_"(ptr noundef nonnull align 8 dereferenceable(16) %0, ptr noundef nonnull align 4 dereferenceable(4) %1, ptr noundef nonnull align 8 dereferenceable(8) %2, ptr noundef nonnull align 8 dereferenceable(8) %3, ptr noundef nonnull align 4 dereferenceable(4) %4) #4 align 2 {
  %6 = alloca ptr, align 8
  %7 = alloca ptr, align 8
  %8 = alloca ptr, align 8
  %9 = alloca ptr, align 8
  %10 = alloca ptr, align 8
  store ptr %0, ptr %6, align 8, !tbaa !490
  store ptr %1, ptr %7, align 8, !tbaa !88
  store ptr %2, ptr %8, align 8, !tbaa !468
  store ptr %3, ptr %9, align 8, !tbaa !464
  store ptr %4, ptr %10, align 8, !tbaa !88
  %11 = load ptr, ptr %6, align 8, !tbaa !490
  %12 = call noundef ptr @"_ZNSt14_Function_base13_Base_managerIZN3sat12local_search6importERKNS1_6solverEbE3$_1E14_M_get_pointerERKSt9_Any_data"(ptr noundef nonnull align 8 dereferenceable(16) %11) #3
  %13 = load ptr, ptr %7, align 8, !tbaa !88
  %14 = load ptr, ptr %8, align 8, !tbaa !468
  %15 = load ptr, ptr %9, align 8, !tbaa !464
  %16 = load ptr, ptr %10, align 8, !tbaa !88
  call void @"_ZSt10__invoke_rIvRZN3sat12local_search6importERKNS0_6solverEbE3$_1JjPKNS0_7literalEPKjjEENSt9enable_ifIX16is_invocable_r_vIT_T0_DpT1_EESD_E4typeEOSE_DpOSF_"(ptr noundef nonnull align 8 dereferenceable(8) %12, ptr noundef nonnull align 4 dereferenceable(4) %13, ptr noundef nonnull align 8 dereferenceable(8) %14, ptr noundef nonnull align 8 dereferenceable(8) %15, ptr noundef nonnull align 4 dereferenceable(4) %16)
  ret void
}