; Function Attrs: mustprogress uwtable
define internal void @"_ZNSt17_Function_handlerIFvjPKN3sat7literalEPKjjEZNS0_12local_search6importERKNS0_6solverEbE3$_1E9_M_invokeERKSt9_Any_dataOjOS3_OS5_SG_"(ptr noundef nonnull readonly align 8 captures(none) dereferenceable(16) %0, ptr noundef nonnull readonly align 4 captures(none) dereferenceable(4) %1, ptr noundef nonnull readonly align 8 captures(none) dereferenceable(8) %2, ptr noundef nonnull readonly align 8 captures(none) dereferenceable(8) %3, ptr noundef nonnull readonly align 4 captures(none) dereferenceable(4) %4) #3 align 2 {
  %.val = load ptr, ptr %0, align 8, !tbaa !325
  %.val5 = load i32, ptr %1, align 4, !tbaa !13
  %.val6 = load ptr, ptr %2, align 8, !tbaa !67
  %.val7 = load ptr, ptr %3, align 8, !tbaa !64
  %.val8 = load i32, ptr %4, align 4, !tbaa !13
  tail call void @_ZN3sat12local_search6add_pbEjPKNS_7literalEPKjj(ptr noundef nonnull align 8 dereferenceable(232) %.val, i32 noundef %.val5, ptr noundef readonly %.val6, ptr noundef readonly %.val7, i32 noundef %.val8)
  ret void
}